target datalayout = "e-m:e-p270:32:32-p271:32:32-p272:64:64-i64:64-i128:128-f80:128-n8:16:32:64-S128"
target triple = "x86_64-unknown-linux-gnu"

%class.linear_equation = type { i32, ptr, ptr, ptr }

; Function Attrs: mustprogress nounwind uwtable
define hidden noundef i32 @_ZNK15linear_equation3posEj(ptr noundef nonnull align 8 dereferenceable(32) %this, i32 noundef %x_i) #4 align 2 {
entry:
  %retval = alloca i32, align 4
  %this.addr = alloca ptr, align 8
  %x_i.addr = alloca i32, align 4
  %low = alloca i32, align 4
  %high = alloca i32, align 4
  %mid = alloca i32, align 4
  %x_mid = alloca i32, align 4
  store ptr %this, ptr %this.addr, align 8
  store i32 %x_i, ptr %x_i.addr, align 4
  %this1 = load ptr, ptr %this.addr, align 8
  store i32 0, ptr %low, align 4
  %m_size = getelementptr inbounds %class.linear_equation, ptr %this1, i32 0, i32 0
  %0 = load i32, ptr %m_size, align 8
  %sub = sub i32 %0, 1
  store i32 %sub, ptr %high, align 4
  br label %while.body

while.body:                                       ; preds = %if.end14, %entry
  %1 = load i32, ptr %low, align 4
  %2 = load i32, ptr %high, align 4
  %3 = load i32, ptr %low, align 4
  %sub2 = sub nsw i32 %2, %3
  %div = sdiv i32 %sub2, 2
  %add = add nsw i32 %1, %div
  store i32 %add, ptr %mid, align 4
  %m_xs = getelementptr inbounds %class.linear_equation, ptr %this1, i32 0, i32 3
  %4 = load ptr, ptr %m_xs, align 8
  %5 = load i32, ptr %mid, align 4
  %idxprom = sext i32 %5 to i64
  %arrayidx = getelementptr inbounds i32, ptr %4, i64 %idxprom
  %6 = load i32, ptr %arrayidx, align 4
  store i32 %6, ptr %x_mid, align 4
  %7 = load i32, ptr %x_i.addr, align 4
  %8 = load i32, ptr %x_mid, align 4
  %cmp = icmp ugt i32 %7, %8
  br i1 %cmp, label %if.then, label %if.else

if.then:                                          ; preds = %while.body
  %9 = load i32, ptr %mid, align 4
  %add3 = add nsw i32 %9, 1
  store i32 %add3, ptr %low, align 4
  %10 = load i32, ptr %low, align 4
  %11 = load i32, ptr %high, align 4
  %cmp4 = icmp sgt i32 %10, %11
  br i1 %cmp4, label %if.then5, label %if.end

if.then5:                                         ; preds = %if.then
  store i32 -1, ptr %retval, align 4
  br label %return

if.end:                                           ; preds = %if.then
  br label %if.end14

if.else:                                          ; preds = %while.body
  %12 = load i32, ptr %x_i.addr, align 4
  %13 = load i32, ptr %x_mid, align 4
  %cmp6 = icmp ult i32 %12, %13
  br i1 %cmp6, label %if.then7, label %if.else12

if.then7:                                         ; preds = %if.else
  %14 = load i32, ptr %mid, align 4
  %sub8 = sub nsw i32 %14, 1
  store i32 %sub8, ptr %high, align 4
  %15 = load i32, ptr %low, align 4
  %16 = load i32, ptr %high, align 4
  %cmp9 = icmp sgt i32 %15, %16
  br i1 %cmp9, label %if.then10, label %if.end11

if.then10:                                        ; preds = %if.then7
  store i32 -1, ptr %retval, align 4
  br label %return

if.end11:                                         ; preds = %if.then7
  br label %if.end13

if.else12:                                        ; preds = %if.else
  %17 = load i32, ptr %mid, align 4
  store i32 %17, ptr %retval, align 4
  br label %return

if.end13:                                         ; preds = %if.end11
  br label %if.end14

if.end14:                                         ; preds = %if.end13, %if.end
  br label %while.body, !llvm.loop !4

return:                                           ; preds = %if.else12, %if.then10, %if.then5
  %18 = load i32, ptr %retval, align 4
  ret i32 %18
}